target datalayout = "e-m:e-p270:32:32-p271:32:32-p272:64:64-i64:64-i128:128-f80:128-n8:16:32:64-S128"
target triple = "x86_64-pc-linux-gnu"

%struct._zval_struct = type { %union._zend_value, %union.anon.3, %union.anon.6 }
%union._zend_value = type { i64 }
%union.anon.3 = type { i32 }
%union.anon.6 = type { i32 }
%struct._zend_refcounted_h = type { i32, %union.anon }
%union.anon = type { i32 }
%struct._zend_string = type { %struct._zend_refcounted_h, i64, i64, [1 x i8] }
%struct._zend_execute_data = type { ptr, ptr, ptr, ptr, %struct._zval_struct, ptr, ptr, ptr, ptr }
%struct.servent = type { ptr, ptr, i32, ptr }

; Function Attrs: nounwind uwtable
define hidden void @zif_getservbyname(ptr noundef %0, ptr noundef %1) #0 {
  %3 = alloca ptr, align 8
  %4 = alloca ptr, align 8
  %5 = alloca i1, align 1
  %6 = alloca ptr, align 8
  %7 = alloca ptr, align 8
  %8 = alloca i8, align 1
  %9 = alloca i32, align 4
  %10 = alloca i8, align 1
  %11 = alloca ptr, align 8
  %12 = alloca ptr, align 8
  %13 = alloca i1, align 1
  %14 = alloca ptr, align 8
  %15 = alloca ptr, align 8
  %16 = alloca i8, align 1
  %17 = alloca i32, align 4
  %18 = alloca i8, align 1
  %19 = alloca ptr, align 8
  %20 = alloca ptr, align 8
  %21 = alloca i8, align 1
  %22 = alloca i32, align 4
  %23 = alloca i1, align 1
  %24 = alloca ptr, align 8
  %25 = alloca ptr, align 8
  %26 = alloca ptr, align 8
  %27 = alloca i8, align 1
  %28 = alloca i32, align 4
  %29 = alloca ptr, align 8
  %30 = alloca ptr, align 8
  %31 = alloca ptr, align 8
  %32 = alloca i8, align 1
  %33 = alloca i32, align 4
  %34 = alloca ptr, align 8
  %35 = alloca ptr, align 8
  %36 = alloca ptr, align 8
  %37 = alloca ptr, align 8
  %38 = alloca i64, align 8
  %39 = alloca ptr, align 8
  %40 = alloca i32, align 4
  %41 = alloca i32, align 4
  %42 = alloca i32, align 4
  %43 = alloca i32, align 4
  %44 = alloca i32, align 4
  %45 = alloca ptr, align 8
  %46 = alloca ptr, align 8
  %47 = alloca i32, align 4
  %48 = alloca ptr, align 8
  %49 = alloca i8, align 1
  %50 = alloca i8, align 1
  %51 = alloca i32, align 4
  %52 = alloca ptr, align 8
  store ptr %0, ptr %34, align 8
  store ptr %1, ptr %35, align 8
  br label %53

53:                                               ; preds = %2
  store i32 0, ptr %40, align 4
  store i32 2, ptr %41, align 4
  store i32 2, ptr %42, align 4
  %54 = load ptr, ptr %34, align 8
  %55 = getelementptr inbounds %struct._zend_execute_data, ptr %54, i32 0, i32 4
  %56 = getelementptr inbounds %struct._zval_struct, ptr %55, i32 0, i32 2
  %57 = load i32, ptr %56, align 4
  store i32 %57, ptr %43, align 4
  store i32 0, ptr %44, align 4
  store ptr null, ptr %46, align 8
  store i32 0, ptr %47, align 4
  store ptr null, ptr %48, align 8
  store i8 0, ptr %49, align 1
  store i8 0, ptr %50, align 1
  store i32 0, ptr %51, align 4
  br label %58

58:                                               ; preds = %53
  %59 = load i32, ptr %43, align 4
  %60 = load i32, ptr %41, align 4
  %61 = icmp ult i32 %59, %60
  %62 = xor i1 %61, true
  %63 = xor i1 %62, true
  %64 = zext i1 %63 to i32
  %65 = sext i32 %64 to i64
  %66 = icmp ne i64 %65, 0
  br i1 %66, label %76, label %67

67:                                               ; preds = %58
  %68 = load i32, ptr %43, align 4
  %69 = load i32, ptr %42, align 4
  %70 = icmp ugt i32 %68, %69
  %71 = xor i1 %70, true
  %72 = xor i1 %71, true
  %73 = zext i1 %72 to i32
  %74 = sext i32 %73 to i64
  %75 = icmp ne i64 %74, 0
  br i1 %75, label %76, label %79

76:                                               ; preds = %67, %58
  %77 = load i32, ptr %41, align 4
  %78 = load i32, ptr %42, align 4
  call void @zend_wrong_parameters_count_error(i32 noundef %77, i32 noundef %78)
  store i32 1, ptr %51, align 4
  br label %303

79:                                               ; preds = %67
  %80 = load ptr, ptr %34, align 8
  %81 = getelementptr inbounds %struct._zval_struct, ptr %80, i64 4
  store ptr %81, ptr %45, align 8
  %82 = load i32, ptr %44, align 4
  %83 = add i32 %82, 1
  store i32 %83, ptr %44, align 4
  %84 = load i32, ptr %44, align 4
  %85 = load i32, ptr %41, align 4
  %86 = icmp ule i32 %84, %85
  br i1 %86, label %92, label %87

87:                                               ; preds = %79
  %88 = load i8, ptr %50, align 1
  %89 = trunc i8 %88 to i1
  %90 = zext i1 %89 to i32
  %91 = icmp eq i32 %90, 1
  br label %92

92:                                               ; preds = %87, %79
  %93 = phi i1 [ true, %79 ], [ %91, %87 ]
  call void @llvm.assume(i1 %93)
  %94 = load i32, ptr %44, align 4
  %95 = load i32, ptr %41, align 4
  %96 = icmp ugt i32 %94, %95
  br i1 %96, label %102, label %97

97:                                               ; preds = %92
  %98 = load i8, ptr %50, align 1
  %99 = trunc i8 %98 to i1
  %100 = zext i1 %99 to i32
  %101 = icmp eq i32 %100, 0
  br label %102

102:                                              ; preds = %97, %92
  %103 = phi i1 [ true, %92 ], [ %101, %97 ]
  call void @llvm.assume(i1 %103)
  %104 = load i8, ptr %50, align 1
  %105 = trunc i8 %104 to i1
  br i1 %105, label %106, label %117

106:                                              ; preds = %102
  %107 = load i32, ptr %44, align 4
  %108 = load i32, ptr %43, align 4
  %109 = icmp ugt i32 %107, %108
  %110 = xor i1 %109, true
  %111 = xor i1 %110, true
  %112 = zext i1 %111 to i32
  %113 = sext i32 %112 to i64
  %114 = icmp ne i64 %113, 0
  br i1 %114, label %115, label %116

115:                                              ; preds = %106
  br label %303

116:                                              ; preds = %106
  br label %117

117:                                              ; preds = %116, %102
  %118 = load ptr, ptr %45, align 8
  %119 = getelementptr inbounds %struct._zval_struct, ptr %118, i32 1
  store ptr %119, ptr %45, align 8
  %120 = load ptr, ptr %45, align 8
  store ptr %120, ptr %46, align 8
  %121 = load ptr, ptr %46, align 8
  %122 = load i32, ptr %44, align 4
  store ptr %121, ptr %30, align 8
  store ptr %36, ptr %31, align 8
  store i8 0, ptr %32, align 1
  store i32 %122, ptr %33, align 4
  %123 = load ptr, ptr %30, align 8
  %124 = load ptr, ptr %31, align 8
  %125 = load i8, ptr %32, align 1
  %126 = trunc i8 %125 to i1
  %127 = load i32, ptr %33, align 4
  store ptr %123, ptr %6, align 8
  store ptr %124, ptr %7, align 8
  %128 = zext i1 %126 to i8
  store i8 %128, ptr %8, align 1
  store i32 %127, ptr %9, align 4
  store i8 0, ptr %10, align 1
  %129 = load ptr, ptr %6, align 8
  store ptr %129, ptr %3, align 8
  %130 = load ptr, ptr %3, align 8
  %131 = getelementptr inbounds %struct._zval_struct, ptr %130, i32 0, i32 1
  %132 = load i8, ptr %131, align 8
  %133 = zext i8 %132 to i32
  %134 = icmp eq i32 %133, 6
  br i1 %134, label %135, label %139

135:                                              ; preds = %117
  %136 = load ptr, ptr %6, align 8
  %137 = load ptr, ptr %136, align 8
  %138 = load ptr, ptr %7, align 8
  store ptr %137, ptr %138, align 8
  br label %164

139:                                              ; preds = %117
  %140 = load i8, ptr %8, align 1
  %141 = trunc i8 %140 to i1
  br i1 %141, label %142, label %151

142:                                              ; preds = %139
  %143 = load ptr, ptr %6, align 8
  store ptr %143, ptr %4, align 8
  %144 = load ptr, ptr %4, align 8
  %145 = getelementptr inbounds %struct._zval_struct, ptr %144, i32 0, i32 1
  %146 = load i8, ptr %145, align 8
  %147 = zext i8 %146 to i32
  %148 = icmp eq i32 %147, 1
  br i1 %148, label %149, label %151

149:                                              ; preds = %142
  %150 = load ptr, ptr %7, align 8
  store ptr null, ptr %150, align 8
  br label %164

151:                                              ; preds = %142, %139
  %152 = load i8, ptr %10, align 1
  %153 = trunc i8 %152 to i1
  br i1 %153, label %154, label %159

154:                                              ; preds = %151
  %155 = load ptr, ptr %6, align 8
  %156 = load ptr, ptr %7, align 8
  %157 = load i32, ptr %9, align 4
  %158 = call zeroext i1 @zend_flf_parse_arg_str_slow(ptr noundef %155, ptr noundef %156, i32 noundef %157) #12
  store i1 %158, ptr %5, align 1
  br label %165

159:                                              ; preds = %151
  %160 = load ptr, ptr %6, align 8
  %161 = load ptr, ptr %7, align 8
  %162 = load i32, ptr %9, align 4
  %163 = call zeroext i1 @zend_parse_arg_str_slow(ptr noundef %160, ptr noundef %161, i32 noundef %162) #12
  store i1 %163, ptr %5, align 1
  br label %165

164:                                              ; preds = %149, %135
  store i1 true, ptr %5, align 1
  br label %165

165:                                              ; preds = %164, %159, %154
  %166 = load i1, ptr %5, align 1
  %167 = xor i1 %166, true
  %168 = xor i1 %167, true
  %169 = xor i1 %168, true
  %170 = zext i1 %169 to i32
  %171 = sext i32 %170 to i64
  %172 = icmp ne i64 %171, 0
  br i1 %172, label %173, label %174

173:                                              ; preds = %165
  store i32 4, ptr %47, align 4
  store i32 9, ptr %51, align 4
  br label %303

174:                                              ; preds = %165
  %175 = load i32, ptr %44, align 4
  %176 = add i32 %175, 1
  store i32 %176, ptr %44, align 4
  %177 = load i32, ptr %44, align 4
  %178 = load i32, ptr %41, align 4
  %179 = icmp ule i32 %177, %178
  br i1 %179, label %185, label %180

180:                                              ; preds = %174
  %181 = load i8, ptr %50, align 1
  %182 = trunc i8 %181 to i1
  %183 = zext i1 %182 to i32
  %184 = icmp eq i32 %183, 1
  br label %185

185:                                              ; preds = %180, %174
  %186 = phi i1 [ true, %174 ], [ %184, %180 ]
  call void @llvm.assume(i1 %186)
  %187 = load i32, ptr %44, align 4
  %188 = load i32, ptr %41, align 4
  %189 = icmp ugt i32 %187, %188
  br i1 %189, label %195, label %190

190:                                              ; preds = %185
  %191 = load i8, ptr %50, align 1
  %192 = trunc i8 %191 to i1
  %193 = zext i1 %192 to i32
  %194 = icmp eq i32 %193, 0
  br label %195

195:                                              ; preds = %190, %185
  %196 = phi i1 [ true, %185 ], [ %194, %190 ]
  call void @llvm.assume(i1 %196)
  %197 = load i8, ptr %50, align 1
  %198 = trunc i8 %197 to i1
  br i1 %198, label %199, label %210

199:                                              ; preds = %195
  %200 = load i32, ptr %44, align 4
  %201 = load i32, ptr %43, align 4
  %202 = icmp ugt i32 %200, %201
  %203 = xor i1 %202, true
  %204 = xor i1 %203, true
  %205 = zext i1 %204 to i32
  %206 = sext i32 %205 to i64
  %207 = icmp ne i64 %206, 0
  br i1 %207, label %208, label %209

208:                                              ; preds = %199
  br label %303

209:                                              ; preds = %199
  br label %210

210:                                              ; preds = %209, %195
  %211 = load ptr, ptr %45, align 8
  %212 = getelementptr inbounds %struct._zval_struct, ptr %211, i32 1
  store ptr %212, ptr %45, align 8
  %213 = load ptr, ptr %45, align 8
  store ptr %213, ptr %46, align 8
  %214 = load ptr, ptr %46, align 8
  %215 = load i32, ptr %44, align 4
  store ptr %214, ptr %24, align 8
  store ptr %37, ptr %25, align 8
  store ptr %38, ptr %26, align 8
  store i8 0, ptr %27, align 1
  store i32 %215, ptr %28, align 4
  %216 = load ptr, ptr %24, align 8
  %217 = load i8, ptr %27, align 1
  %218 = trunc i8 %217 to i1
  %219 = load i32, ptr %28, align 4
  store ptr %216, ptr %19, align 8
  store ptr %29, ptr %20, align 8
  %220 = zext i1 %218 to i8
  store i8 %220, ptr %21, align 1
  store i32 %219, ptr %22, align 4
  %221 = load ptr, ptr %19, align 8
  %222 = load ptr, ptr %20, align 8
  %223 = load i8, ptr %21, align 1
  %224 = trunc i8 %223 to i1
  %225 = load i32, ptr %22, align 4
  store ptr %221, ptr %14, align 8
  store ptr %222, ptr %15, align 8
  %226 = zext i1 %224 to i8
  store i8 %226, ptr %16, align 1
  store i32 %225, ptr %17, align 4
  store i8 0, ptr %18, align 1
  %227 = load ptr, ptr %14, align 8
  store ptr %227, ptr %11, align 8
  %228 = load ptr, ptr %11, align 8
  %229 = getelementptr inbounds %struct._zval_struct, ptr %228, i32 0, i32 1
  %230 = load i8, ptr %229, align 8
  %231 = zext i8 %230 to i32
  %232 = icmp eq i32 %231, 6
  br i1 %232, label %233, label %237

233:                                              ; preds = %210
  %234 = load ptr, ptr %14, align 8
  %235 = load ptr, ptr %234, align 8
  %236 = load ptr, ptr %15, align 8
  store ptr %235, ptr %236, align 8
  br label %262

237:                                              ; preds = %210
  %238 = load i8, ptr %16, align 1
  %239 = trunc i8 %238 to i1
  br i1 %239, label %240, label %249

240:                                              ; preds = %237
  %241 = load ptr, ptr %14, align 8
  store ptr %241, ptr %12, align 8
  %242 = load ptr, ptr %12, align 8
  %243 = getelementptr inbounds %struct._zval_struct, ptr %242, i32 0, i32 1
  %244 = load i8, ptr %243, align 8
  %245 = zext i8 %244 to i32
  %246 = icmp eq i32 %245, 1
  br i1 %246, label %247, label %249

247:                                              ; preds = %240
  %248 = load ptr, ptr %15, align 8
  store ptr null, ptr %248, align 8
  br label %262

249:                                              ; preds = %240, %237
  %250 = load i8, ptr %18, align 1
  %251 = trunc i8 %250 to i1
  br i1 %251, label %252, label %257

252:                                              ; preds = %249
  %253 = load ptr, ptr %14, align 8
  %254 = load ptr, ptr %15, align 8
  %255 = load i32, ptr %17, align 4
  %256 = call zeroext i1 @zend_flf_parse_arg_str_slow(ptr noundef %253, ptr noundef %254, i32 noundef %255) #12
  store i1 %256, ptr %13, align 1
  br label %263

257:                                              ; preds = %249
  %258 = load ptr, ptr %14, align 8
  %259 = load ptr, ptr %15, align 8
  %260 = load i32, ptr %17, align 4
  %261 = call zeroext i1 @zend_parse_arg_str_slow(ptr noundef %258, ptr noundef %259, i32 noundef %260) #12
  store i1 %261, ptr %13, align 1
  br label %263

262:                                              ; preds = %247, %233
  store i1 true, ptr %13, align 1
  br label %263

263:                                              ; preds = %262, %257, %252
  %264 = load i1, ptr %13, align 1
  br i1 %264, label %266, label %265

265:                                              ; preds = %263
  store i1 false, ptr %23, align 1
  br label %285

266:                                              ; preds = %263
  %267 = load i8, ptr %27, align 1
  %268 = trunc i8 %267 to i1
  br i1 %268, label %269, label %276

269:                                              ; preds = %266
  %270 = load ptr, ptr %29, align 8
  %271 = icmp ne ptr %270, null
  %272 = xor i1 %271, true
  br i1 %272, label %273, label %276

273:                                              ; preds = %269
  %274 = load ptr, ptr %25, align 8
  store ptr null, ptr %274, align 8
  %275 = load ptr, ptr %26, align 8
  store i64 0, ptr %275, align 8
  br label %284

276:                                              ; preds = %269, %266
  %277 = load ptr, ptr %29, align 8
  %278 = getelementptr inbounds %struct._zend_string, ptr %277, i32 0, i32 3
  %279 = load ptr, ptr %25, align 8
  store ptr %278, ptr %279, align 8
  %280 = load ptr, ptr %29, align 8
  %281 = getelementptr inbounds %struct._zend_string, ptr %280, i32 0, i32 2
  %282 = load i64, ptr %281, align 8
  %283 = load ptr, ptr %26, align 8
  store i64 %282, ptr %283, align 8
  br label %284

284:                                              ; preds = %276, %273
  store i1 true, ptr %23, align 1
  br label %285

285:                                              ; preds = %284, %265
  %286 = load i1, ptr %23, align 1
  %287 = xor i1 %286, true
  %288 = xor i1 %287, true
  %289 = xor i1 %288, true
  %290 = zext i1 %289 to i32
  %291 = sext i32 %290 to i64
  %292 = icmp ne i64 %291, 0
  br i1 %292, label %293, label %294

293:                                              ; preds = %285
  store i32 4, ptr %47, align 4
  store i32 9, ptr %51, align 4
  br label %303

294:                                              ; preds = %285
  %295 = load i32, ptr %44, align 4
  %296 = load i32, ptr %42, align 4
  %297 = icmp eq i32 %295, %296
  br i1 %297, label %301, label %298

298:                                              ; preds = %294
  %299 = load i32, ptr %42, align 4
  %300 = icmp eq i32 %299, -1
  br label %301

301:                                              ; preds = %298, %294
  %302 = phi i1 [ true, %294 ], [ %300, %298 ]
  call void @llvm.assume(i1 %302)
  br label %303

303:                                              ; preds = %301, %293, %208, %173, %115, %76
  %304 = load i32, ptr %51, align 4
  %305 = icmp ne i32 %304, 0
  %306 = xor i1 %305, true
  %307 = xor i1 %306, true
  %308 = zext i1 %307 to i32
  %309 = sext i32 %308 to i64
  %310 = icmp ne i64 %309, 0
  br i1 %310, label %311, label %317

311:                                              ; preds = %303
  %312 = load i32, ptr %51, align 4
  %313 = load i32, ptr %44, align 4
  %314 = load ptr, ptr %48, align 8
  %315 = load i32, ptr %47, align 4
  %316 = load ptr, ptr %46, align 8
  call void @zend_wrong_parameter_error(i32 noundef %312, i32 noundef %313, ptr noundef %314, i32 noundef %315, ptr noundef %316)
  br label %348

317:                                              ; preds = %303
  br label %318

318:                                              ; preds = %317
  %319 = load ptr, ptr %36, align 8
  %320 = getelementptr inbounds %struct._zend_string, ptr %319, i32 0, i32 3
  %321 = getelementptr inbounds [1 x i8], ptr %320, i64 0, i64 0
  %322 = load ptr, ptr %37, align 8
  %323 = call ptr @getservbyname(ptr noundef %321, ptr noundef %322)
  store ptr %323, ptr %39, align 8
  %324 = load ptr, ptr %39, align 8
  %325 = icmp eq ptr %324, null
  br i1 %325, label %326, label %333

326:                                              ; preds = %318
  br label %327

327:                                              ; preds = %326
  br label %328

328:                                              ; preds = %327
  %329 = load ptr, ptr %35, align 8
  %330 = getelementptr inbounds %struct._zval_struct, ptr %329, i32 0, i32 1
  store i32 2, ptr %330, align 8
  br label %331

331:                                              ; preds = %328
  br label %348

332:                                              ; No predecessors!
  br label %333

333:                                              ; preds = %332, %318
  br label %334

334:                                              ; preds = %333
  br label %335

335:                                              ; preds = %334
  %336 = load ptr, ptr %35, align 8
  store ptr %336, ptr %52, align 8
  %337 = load ptr, ptr %39, align 8
  %338 = getelementptr inbounds %struct.servent, ptr %337, i32 0, i32 2
  %339 = load i32, ptr %338, align 8
  %340 = trunc i32 %339 to i16
  %341 = call zeroext i16 @ntohs(i16 noundef zeroext %340) #15
  %342 = zext i16 %341 to i64
  %343 = load ptr, ptr %52, align 8
  %344 = getelementptr inbounds %struct._zval_struct, ptr %343, i32 0, i32 0
  store i64 %342, ptr %344, align 8
  %345 = load ptr, ptr %52, align 8
  %346 = getelementptr inbounds %struct._zval_struct, ptr %345, i32 0, i32 1
  store i32 4, ptr %346, align 8
  br label %347

347:                                              ; preds = %335
  br label %348

348:                                              ; preds = %347, %331, %311
  ret void
}