; Function Attrs: nounwind uwtable
define hidden void @zif_getservbyname(ptr noundef %0, ptr nocapture noundef writeonly %1) #0 {
  %3 = alloca ptr, align 8
  %4 = alloca ptr, align 8
  %5 = getelementptr inbounds i8, ptr %0, i64 44
  %6 = load i32, ptr %5, align 4
  %.not = icmp eq i32 %6, 2
  br i1 %.not, label %8, label %7

7:                                                ; preds = %2
  tail call void @zend_wrong_parameters_count_error(i32 noundef 2, i32 noundef 2) #18
  br label %25

8:                                                ; preds = %2
  %9 = getelementptr inbounds i8, ptr %0, i64 80
  %10 = getelementptr inbounds i8, ptr %0, i64 88
  %11 = load i8, ptr %10, align 8
  %12 = icmp eq i8 %11, 6
  br i1 %12, label %.critedge, label %14

.critedge:                                        ; preds = %8
  %13 = load ptr, ptr %9, align 8
  store ptr %13, ptr %4, align 8
  br label %16

14:                                               ; preds = %8
  %15 = call zeroext i1 @zend_parse_arg_str_slow(ptr noundef nonnull %9, ptr noundef nonnull %4, i32 noundef 1) #18
  br i1 %15, label %16, label %25

16:                                               ; preds = %14, %.critedge
  %17 = getelementptr inbounds i8, ptr %0, i64 96
  %18 = getelementptr inbounds i8, ptr %0, i64 104
  %19 = load i8, ptr %18, align 8
  %20 = icmp eq i8 %19, 6
  br i1 %20, label %.thread114, label %22

.thread114:                                       ; preds = %16
  %21 = load ptr, ptr %17, align 8
  store ptr %21, ptr %3, align 8
  br label %26

22:                                               ; preds = %16
  %23 = call zeroext i1 @zend_parse_arg_str_slow(ptr noundef nonnull %17, ptr noundef nonnull %3, i32 noundef 2) #18
  %24 = load ptr, ptr %3, align 8
  br i1 %23, label %26, label %25

25:                                               ; preds = %7, %14, %22
  %.0104.ph = phi ptr [ %17, %22 ], [ %9, %14 ], [ null, %7 ]
  %.0103.ph = phi i32 [ 4, %22 ], [ 4, %14 ], [ 0, %7 ]
  %.0102.ph = phi i32 [ 2, %22 ], [ 1, %14 ], [ 0, %7 ]
  %.099.ph = phi i32 [ 9, %22 ], [ 9, %14 ], [ 1, %7 ]
  call void @zend_wrong_parameter_error(i32 noundef %.099.ph, i32 noundef %.0102.ph, ptr noundef null, i32 noundef %.0103.ph, ptr noundef %.0104.ph) #18
  br label %40

26:                                               ; preds = %22, %.thread114
  %.pn = phi ptr [ %21, %.thread114 ], [ %24, %22 ]
  %.2 = getelementptr inbounds i8, ptr %.pn, i64 24
  %27 = load ptr, ptr %4, align 8
  %28 = getelementptr inbounds i8, ptr %27, i64 24
  %29 = call ptr @getservbyname(ptr noundef nonnull %28, ptr noundef nonnull %.2) #18
  %30 = icmp eq ptr %29, null
  br i1 %30, label %31, label %33

31:                                               ; preds = %26
  %32 = getelementptr inbounds i8, ptr %1, i64 8
  store i32 2, ptr %32, align 8
  br label %40

33:                                               ; preds = %26
  %34 = getelementptr inbounds i8, ptr %29, i64 16
  %35 = load i32, ptr %34, align 8
  %36 = trunc i32 %35 to i16
  %37 = call zeroext i16 @ntohs(i16 noundef zeroext %36) #21
  %38 = zext i16 %37 to i64
  store i64 %38, ptr %1, align 8
  %39 = getelementptr inbounds i8, ptr %1, i64 8
  store i32 4, ptr %39, align 8
  br label %40

40:                                               ; preds = %33, %31, %25
  ret void
}